; Function Attrs: inlinehint nofree nounwind memory(read, argmem: readwrite, inaccessiblemem: none) uwtable
define internal range(i32 0, 2) i32 @lpFindCmp(ptr readnone captures(none) %0, ptr readnone captures(none) %1, ptr noundef captures(none) %2, ptr noundef readonly captures(address_is_null) %3, i64 noundef %4) #8 {
  %.not = icmp eq ptr %3, null
  br i1 %.not, label %14, label %6

6:                                                ; preds = %5
  %7 = getelementptr inbounds nuw i8, ptr %2, i64 8
  %8 = load i32, ptr %7, align 8, !tbaa !25
  %9 = zext i32 %8 to i64
  %10 = icmp eq i64 %4, %9
  br i1 %10, label %11, label %59

11:                                               ; preds = %6
  %12 = load ptr, ptr %2, align 8, !tbaa !23
  %bcmp = tail call i32 @bcmp(ptr %12, ptr nonnull %3, i64 %4)
  %13 = icmp eq i32 %bcmp, 0
  br i1 %13, label %60, label %59

14:                                               ; preds = %5
  %15 = getelementptr inbounds nuw i8, ptr %2, i64 12
  %16 = load i32, ptr %15, align 4, !tbaa !26
  switch i32 %16, label %._crit_edge [
    i32 0, label %17
    i32 255, label %59
  ]

._crit_edge:                                      ; preds = %14
  %.phi.trans.insert = getelementptr inbounds nuw i8, ptr %2, i64 16
  %.pre = load i64, ptr %.phi.trans.insert, align 8, !tbaa !27
  br label %56

17:                                               ; preds = %14
  %18 = getelementptr inbounds nuw i8, ptr %2, i64 8
  %19 = load i32, ptr %18, align 8, !tbaa !25
  %20 = add i32 %19, -32
  %or.cond = icmp ult i32 %20, -31
  br i1 %or.cond, label %.thread, label %21

21:                                               ; preds = %17
  %22 = load ptr, ptr %2, align 8, !tbaa !23
  %23 = zext nneg i32 %19 to i64
  %24 = getelementptr inbounds nuw i8, ptr %2, i64 16
  %25 = add nsw i64 %23, -21
  %or.cond.i = icmp ult i64 %25, -20
  br i1 %or.cond.i, label %.thread, label %26

26:                                               ; preds = %21
  %27 = icmp eq i32 %19, 1
  %28 = load i8, ptr %22, align 1, !tbaa !5
  br i1 %27, label %29, label %.thread.i

29:                                               ; preds = %26
  switch i8 %28, label %.thread70.i [
    i8 48, label %.thread26
    i8 45, label %.thread
  ]

.thread.i:                                        ; preds = %26
  %.not59.i = icmp eq i8 %28, 45
  br i1 %.not59.i, label %.thread62.i, label %31

.thread62.i:                                      ; preds = %.thread.i
  %30 = getelementptr inbounds nuw i8, ptr %22, i64 1
  %.pre.i = load i8, ptr %30, align 1, !tbaa !5
  br label %31

31:                                               ; preds = %.thread62.i, %.thread.i
  %32 = phi i8 [ %28, %.thread.i ], [ %.pre.i, %.thread62.i ]
  %.043.i = phi ptr [ %22, %.thread.i ], [ %30, %.thread62.i ]
  %.042.i = phi i64 [ 1, %.thread.i ], [ 2, %.thread62.i ]
  %33 = add i8 %32, -49
  %or.cond56.i = icmp ult i8 %33, 9
  br i1 %or.cond56.i, label %36, label %.thread

.thread70.i:                                      ; preds = %29
  %34 = add i8 %28, -49
  %or.cond5674.i = icmp ult i8 %34, 9
  br i1 %or.cond5674.i, label %.thread87.i, label %.thread

.thread87.i:                                      ; preds = %.thread70.i
  %narrow82.i = add nsw i8 %28, -48
  %35 = zext nneg i8 %narrow82.i to i64
  br label %.thread26

36:                                               ; preds = %31
  %narrow.i = add nsw i8 %32, -48
  %37 = zext nneg i8 %narrow.i to i64
  %38 = icmp samesign ult i64 %.042.i, %23
  br i1 %38, label %.lr.ph.i, label %.critedge58.i

.lr.ph.i:                                         ; preds = %36, %47
  %.14469.pn.i = phi ptr [ %.14469.i, %47 ], [ %.043.i, %36 ]
  %.068.i = phi i64 [ %48, %47 ], [ %37, %36 ]
  %.167.i = phi i64 [ %49, %47 ], [ %.042.i, %36 ]
  %.14469.i = getelementptr inbounds nuw i8, ptr %.14469.pn.i, i64 1
  %39 = load i8, ptr %.14469.i, align 1, !tbaa !5
  %40 = add i8 %39, -58
  %or.cond57.i = icmp ult i8 %40, -10
  %41 = icmp ugt i64 %.068.i, 1844674407370955161
  %or.cond64.i = select i1 %or.cond57.i, i1 true, i1 %41
  br i1 %or.cond64.i, label %.thread, label %42

42:                                               ; preds = %.lr.ph.i
  %43 = mul nuw i64 %.068.i, 10
  %narrow54.i = add nsw i8 %39, -48
  %44 = zext nneg i8 %narrow54.i to i64
  %45 = xor i64 %44, -1
  %46 = icmp ugt i64 %43, %45
  br i1 %46, label %.thread, label %47

47:                                               ; preds = %42
  %48 = add i64 %43, %44
  %49 = add nuw i64 %.167.i, 1
  %exitcond.not.i = icmp eq i64 %49, %23
  br i1 %exitcond.not.i, label %.critedge58.i, label %.lr.ph.i, !llvm.loop !8

.critedge58.i:                                    ; preds = %47, %36
  %.0.lcssa.i = phi i64 [ %37, %36 ], [ %48, %47 ]
  br i1 %.not59.i, label %50, label %54

50:                                               ; preds = %.critedge58.i
  %51 = icmp ugt i64 %.0.lcssa.i, -9223372036854775808
  br i1 %51, label %.thread, label %52

52:                                               ; preds = %50
  %53 = sub i64 0, %.0.lcssa.i
  br label %.thread26

54:                                               ; preds = %.critedge58.i
  %55 = icmp slt i64 %.0.lcssa.i, 0
  br i1 %55, label %.thread, label %.thread26

.thread:                                          ; preds = %42, %.lr.ph.i, %17, %21, %31, %50, %54, %29, %.thread70.i
  store i32 255, ptr %15, align 4, !tbaa !26
  br label %59

.thread26:                                        ; preds = %52, %29, %54, %.thread87.i
  %.sink.i = phi i64 [ %53, %52 ], [ 0, %29 ], [ %35, %.thread87.i ], [ %.0.lcssa.i, %54 ]
  store i64 %.sink.i, ptr %24, align 8, !tbaa !10
  store i32 1, ptr %15, align 4, !tbaa !26
  br label %56

56:                                               ; preds = %._crit_edge, %.thread26
  %57 = phi i64 [ %.pre, %._crit_edge ], [ %.sink.i, %.thread26 ]
  %58 = icmp eq i64 %4, %57
  br i1 %58, label %60, label %59

59:                                               ; preds = %14, %.thread, %56, %6, %11
  br label %60

60:                                               ; preds = %56, %11, %59
  %.0 = phi i32 [ 1, %59 ], [ 0, %11 ], [ 0, %56 ]
  ret i32 %.0
}